; Function Attrs: mustprogress uwtable
define hidden void @_ZN14duckdb_mbedtls14MbedTlsWrapper9SHA1StateC2Ev(ptr noundef nonnull writeonly align 8 captures(none) dereferenceable(8) initializes((0, 8)) %0) unnamed_addr #0 align 2 personality ptr @__gxx_personality_v0 {
  %2 = tail call noalias noundef nonnull dereferenceable(92) ptr @_Znwm(i64 noundef 92) #22
  tail call void @llvm.memset.p0.i64(ptr noundef nonnull align 16 dereferenceable(92) %2, i8 0, i64 92, i1 false)
  store ptr %2, ptr %0, align 8, !tbaa !20
  tail call void @mbedtls_sha1_init(ptr noundef nonnull %2)
  %3 = tail call i32 @mbedtls_sha1_starts(ptr noundef nonnull %2)
  %.not = icmp eq i32 %3, 0
  br i1 %.not, label %9, label %4

4:                                                ; preds = %1
  %5 = tail call ptr @__cxa_allocate_exception(i64 16) #19
  invoke void @_ZNSt13runtime_errorC1EPKc(ptr noundef nonnull align 8 dereferenceable(16) %5, ptr noundef nonnull @.str.6)
          to label %6 unwind label %7

6:                                                ; preds = %4
  tail call void @__cxa_throw(ptr nonnull %5, ptr nonnull @_ZTISt13runtime_error, ptr nonnull @_ZNSt13runtime_errorD1Ev) #20
  unreachable

7:                                                ; preds = %4
  %8 = landingpad { ptr, i32 }
          cleanup
  tail call void @__cxa_free_exception(ptr nonnull %5) #19
  resume { ptr, i32 } %8

9:                                                ; preds = %1
  ret void
}